(dp0
S'note'
p1
S'calculated using fixed bond length constrants near the adsorbate transition state geometry calculated using NEB on Cu-211'
p2
sS'path'
p3
S'/nfs/slac/g/suncatfs/montoyjh/MAIN/PAR_NEB/CHOCO/metals/fbl/Au/inter_7/'
p4
sS'electronic energy'
p5
F-51231.588527899999
sS'author'
p6
S'JHM'
p7
s.