(dp0
S'note'
p1
S'calculated using fixed bond length constrants near the adsorbate transition state geometry calculated using NEB on Cu-211'
p2
sS'path'
p3
S'/nfs/slac/g/suncatfs/montoyjh/MAIN/PAR_NEB/COCH2O/metals/fbl/Zn/inter_7/'
p4
sS'electronic energy'
p5
F-74311.426322800005
sS'author'
p6
S'JHM'
p7
s.