(dp0
S'note'
p1
S'calculated using fixed bond length constrants near the adsorbate transition state geometry calculated using NEB on Cu-211'
p2
sS'path'
p3
S'/nfs/slac/g/suncatfs/montoyjh/MAIN/PAR_NEB/CH2OCHO/metals/fbl/Pt/inter_7/'
p4
sS'electronic energy'
p5
F-44781.522905899998
sS'author'
p6
S'JHM'
p7
s.